; Function Attrs: mustprogress nounwind uwtable
define dso_local noundef zeroext i1 @_ZNK4llvm9StringRef12getAsIntegerEjRNS_5APIntE(ptr noundef nonnull readonly align 8 captures(none) dereferenceable(16) %0, i32 noundef %1, ptr noundef nonnull align 8 dereferenceable(12) %2) local_unnamed_addr #1 align 2 {
  %4 = alloca %"class.llvm::StringRef", align 8
  call void @llvm.memcpy.p0.p0.i64(ptr noundef nonnull align 8 dereferenceable(16) %4, ptr noundef nonnull align 8 dereferenceable(16) %0, i64 16, i1 false)
  %5 = call noundef zeroext i1 @_ZN4llvm9StringRef14consumeIntegerEjRNS_5APIntE(ptr noundef nonnull align 8 dereferenceable(16) %4, i32 noundef %1, ptr noundef nonnull align 8 dereferenceable(12) %2)
  %6 = getelementptr inbounds nuw i8, ptr %4, i64 8
  %7 = load i64, ptr %6, align 8
  %8 = icmp ne i64 %7, 0
  %.0 = select i1 %5, i1 true, i1 %8
  ret i1 %.0
}